target datalayout = "e-m:e-p270:32:32-p271:32:32-p272:64:64-i64:64-i128:128-f80:128-n8:16:32:64-S128"
target triple = "x86_64-pc-linux-gnu"

%"class.datatype::util" = type { ptr, i32, ptr }

; Function Attrs: mustprogress uwtable
define linkonce_odr hidden noundef ptr @_ZN11ast_manager6mk_appEP9func_declP4expr(ptr noundef nonnull align 8 dereferenceable(976) %0, ptr noundef %1, ptr noundef %2) #4 comdat align 2 {
  %4 = alloca ptr, align 8
  %5 = alloca ptr, align 8
  %6 = alloca ptr, align 8
  store ptr %0, ptr %4, align 8, !tbaa !25
  store ptr %1, ptr %5, align 8, !tbaa !55
  store ptr %2, ptr %6, align 8, !tbaa !388
  %7 = load ptr, ptr %4, align 8
  %8 = load ptr, ptr %5, align 8, !tbaa !55
  %9 = call noundef ptr @_ZN11ast_manager6mk_appEP9func_decljPKP4expr(ptr noundef nonnull align 8 dereferenceable(976) %7, ptr noundef %8, i32 noundef 1, ptr noundef %6)
  ret ptr %9
}

; Function Attrs: mustprogress uwtable
define hidden noundef ptr @_ZN8datatype4util5mk_isEP9func_declP4expr(ptr noundef nonnull align 8 dereferenceable(24) %0, ptr noundef %1, ptr noundef %2) #4 align 2 {
  %4 = alloca ptr, align 8
  %5 = alloca ptr, align 8
  %6 = alloca ptr, align 8
  store ptr %0, ptr %4, align 8, !tbaa !52
  store ptr %1, ptr %5, align 8, !tbaa !55
  store ptr %2, ptr %6, align 8, !tbaa !388
  %7 = load ptr, ptr %4, align 8
  %8 = getelementptr inbounds nuw %"class.datatype::util", ptr %7, i32 0, i32 0
  %9 = load ptr, ptr %8, align 8, !tbaa !60
  %10 = load ptr, ptr %5, align 8, !tbaa !55
  %11 = call noundef ptr @_ZN8datatype4util18get_constructor_isEP9func_decl(ptr noundef nonnull align 8 dereferenceable(24) %7, ptr noundef %10)
  %12 = load ptr, ptr %6, align 8, !tbaa !388
  %13 = call noundef ptr @_ZN11ast_manager6mk_appEP9func_declP4expr(ptr noundef nonnull align 8 dereferenceable(976) %9, ptr noundef %11, ptr noundef %12)
  ret ptr %13
}