; Function Attrs: mustprogress uwtable
define hidden noundef ptr @_ZN8datatype4util5mk_isEP9func_declP4expr(ptr noundef nonnull align 8 captures(none) dereferenceable(24) %0, ptr noundef %1, ptr noundef %2) local_unnamed_addr #4 align 2 {
  %4 = alloca ptr, align 8
  %5 = load ptr, ptr %0, align 8, !tbaa !50
  %6 = tail call noundef ptr @_ZN8datatype4util18get_constructor_isEP9func_decl(ptr noundef nonnull align 8 dereferenceable(24) %0, ptr noundef %1)
  call void @llvm.lifetime.start.p0(i64 8, ptr nonnull %4)
  store ptr %2, ptr %4, align 8, !tbaa !395
  %7 = call noundef ptr @_ZN11ast_manager6mk_appEP9func_decljPKP4expr(ptr noundef nonnull align 8 dereferenceable(976) %5, ptr noundef %6, i32 noundef 1, ptr noundef nonnull %4)
  call void @llvm.lifetime.end.p0(i64 8, ptr nonnull %4)
  ret ptr %7
}